; Function Attrs: nounwind uwtable
define ptr @fdt_get_property_namelen(ptr noundef %0, i32 noundef %1, ptr noundef readonly captures(none) %2, i32 noundef %3, ptr noundef captures(address_is_null) %4) local_unnamed_addr #0 {
  %6 = getelementptr inbounds nuw i8, ptr %0, i64 20
  %7 = load i8, ptr %6, align 1, !tbaa !3
  %8 = zext i8 %7 to i32
  %9 = shl nuw i32 %8, 24
  %10 = getelementptr inbounds nuw i8, ptr %0, i64 21
  %11 = load i8, ptr %10, align 1, !tbaa !3
  %12 = zext i8 %11 to i32
  %13 = shl nuw nsw i32 %12, 16
  %14 = or disjoint i32 %13, %9
  %15 = getelementptr inbounds nuw i8, ptr %0, i64 22
  %16 = load i8, ptr %15, align 1, !tbaa !3
  %17 = zext i8 %16 to i32
  %18 = shl nuw nsw i32 %17, 8
  %19 = or disjoint i32 %14, %18
  %20 = getelementptr inbounds nuw i8, ptr %0, i64 23
  %21 = load i8, ptr %20, align 1, !tbaa !3
  %22 = zext i8 %21 to i32
  %23 = or disjoint i32 %19, %22
  %24 = icmp ult i32 %23, 16
  br i1 %24, label %25, label %27

25:                                               ; preds = %5
  %.not = icmp eq ptr %4, null
  br i1 %.not, label %29, label %26

26:                                               ; preds = %25
  store i32 -10, ptr %4, align 4, !tbaa !6
  br label %29

27:                                               ; preds = %5
  %28 = tail call fastcc ptr @fdt_get_property_namelen_(ptr noundef nonnull %0, i32 noundef %1, ptr noundef %2, i32 noundef %3, ptr noundef %4, ptr noundef null)
  br label %29

29:                                               ; preds = %25, %26, %27
  %.0 = phi ptr [ %28, %27 ], [ null, %26 ], [ null, %25 ]
  ret ptr %.0
}